target datalayout = "e-m:e-p270:32:32-p271:32:32-p272:64:64-i64:64-i128:128-f80:128-n8:16:32:64-S128"
target triple = "x86_64-unknown-linux-gnu"

%"class.grpc_core::promise_filter_detail::BaseCallData::CapturedBatch" = type { ptr }

@_ZN9grpc_core21promise_filter_detail12BaseCallData13CapturedBatchD1Ev = unnamed_addr alias void (ptr), ptr @_ZN9grpc_core21promise_filter_detail12BaseCallData13CapturedBatchD2Ev
@_ZN9grpc_core21promise_filter_detail12BaseCallData13CapturedBatchC1ERKS2_ = unnamed_addr alias void (ptr, ptr), ptr @_ZN9grpc_core21promise_filter_detail12BaseCallData13CapturedBatchC2ERKS2_

; Function Attrs: mustprogress nounwind uwtable
define linkonce_odr void @_ZSt4swapIP30grpc_transport_stream_op_batchENSt9enable_ifIXsr6__and_ISt6__not_ISt15__is_tuple_likeIT_EESt21is_move_constructibleIS5_ESt18is_move_assignableIS5_EEE5valueEvE4typeERS5_SE_(ptr noundef nonnull align 8 dereferenceable(8) %__a, ptr noundef nonnull align 8 dereferenceable(8) %__b) #5 comdat {
entry:
  %__a.addr = alloca ptr, align 8
  %__b.addr = alloca ptr, align 8
  %__tmp = alloca ptr, align 8
  store ptr %__a, ptr %__a.addr, align 8
  store ptr %__b, ptr %__b.addr, align 8
  %0 = load ptr, ptr %__a.addr, align 8
  %1 = load ptr, ptr %0, align 8
  store ptr %1, ptr %__tmp, align 8
  %2 = load ptr, ptr %__b.addr, align 8
  %3 = load ptr, ptr %2, align 8
  %4 = load ptr, ptr %__a.addr, align 8
  store ptr %3, ptr %4, align 8
  %5 = load ptr, ptr %__tmp, align 8
  %6 = load ptr, ptr %__b.addr, align 8
  store ptr %5, ptr %6, align 8
  ret void
}

; Function Attrs: mustprogress nounwind uwtable
define linkonce_odr void @_ZN9grpc_core21promise_filter_detail12BaseCallData13CapturedBatch4SwapEPS2_(ptr noundef nonnull align 8 dereferenceable(8) %this, ptr noundef %other) #5 comdat align 2 {
entry:
  %this.addr = alloca ptr, align 8
  %other.addr = alloca ptr, align 8
  store ptr %this, ptr %this.addr, align 8
  store ptr %other, ptr %other.addr, align 8
  %this1 = load ptr, ptr %this.addr, align 8
  %batch_ = getelementptr inbounds %"class.grpc_core::promise_filter_detail::BaseCallData::CapturedBatch", ptr %this1, i32 0, i32 0
  %0 = load ptr, ptr %other.addr, align 8
  %batch_2 = getelementptr inbounds %"class.grpc_core::promise_filter_detail::BaseCallData::CapturedBatch", ptr %0, i32 0, i32 0
  call void @_ZSt4swapIP30grpc_transport_stream_op_batchENSt9enable_ifIXsr6__and_ISt6__not_ISt15__is_tuple_likeIT_EESt21is_move_constructibleIS5_ESt18is_move_assignableIS5_EEE5valueEvE4typeERS5_SE_(ptr noundef nonnull align 8 dereferenceable(8) %batch_, ptr noundef nonnull align 8 dereferenceable(8) %batch_2) #3
  ret void
}

; Function Attrs: mustprogress uwtable
define noundef nonnull align 8 dereferenceable(8) ptr @_ZN9grpc_core21promise_filter_detail12BaseCallData13CapturedBatchaSERKS2_(ptr noundef nonnull align 8 dereferenceable(8) %this, ptr noundef nonnull align 8 dereferenceable(8) %b) #4 align 2 personality ptr @__gxx_personality_v0 {
entry:
  %this.addr = alloca ptr, align 8
  %b.addr = alloca ptr, align 8
  %temp = alloca %"class.grpc_core::promise_filter_detail::BaseCallData::CapturedBatch", align 8
  %exn.slot = alloca ptr, align 8
  %ehselector.slot = alloca i32, align 4
  store ptr %this, ptr %this.addr, align 8
  store ptr %b, ptr %b.addr, align 8
  %this1 = load ptr, ptr %this.addr, align 8
  %0 = load ptr, ptr %b.addr, align 8
  call void @_ZN9grpc_core21promise_filter_detail12BaseCallData13CapturedBatchC1ERKS2_(ptr noundef nonnull align 8 dereferenceable(8) %temp, ptr noundef nonnull align 8 dereferenceable(8) %0)
  invoke void @_ZN9grpc_core21promise_filter_detail12BaseCallData13CapturedBatch4SwapEPS2_(ptr noundef nonnull align 8 dereferenceable(8) %this1, ptr noundef %temp)
          to label %invoke.cont unwind label %lpad

invoke.cont:                                      ; preds = %entry
  call void @_ZN9grpc_core21promise_filter_detail12BaseCallData13CapturedBatchD1Ev(ptr noundef nonnull align 8 dereferenceable(8) %temp) #3
  ret ptr %this1

lpad:                                             ; preds = %entry
  %1 = landingpad { ptr, i32 }
          cleanup
  %2 = extractvalue { ptr, i32 } %1, 0
  store ptr %2, ptr %exn.slot, align 8
  %3 = extractvalue { ptr, i32 } %1, 1
  store i32 %3, ptr %ehselector.slot, align 4
  call void @_ZN9grpc_core21promise_filter_detail12BaseCallData13CapturedBatchD1Ev(ptr noundef nonnull align 8 dereferenceable(8) %temp) #3
  br label %eh.resume

eh.resume:                                        ; preds = %lpad
  %exn = load ptr, ptr %exn.slot, align 8
  %sel = load i32, ptr %ehselector.slot, align 4
  %lpad.val = insertvalue { ptr, i32 } poison, ptr %exn, 0
  %lpad.val2 = insertvalue { ptr, i32 } %lpad.val, i32 %sel, 1
  resume { ptr, i32 } %lpad.val2
}