; Function Attrs: mustprogress uwtable
define noundef nonnull align 8 dereferenceable(8) ptr @_ZN9grpc_core21promise_filter_detail12BaseCallData13CapturedBatchaSERKS2_(ptr noundef nonnull returned align 8 dereferenceable(8) %this, ptr noundef nonnull align 8 dereferenceable(8) %b) local_unnamed_addr #3 align 2 personality ptr @__gxx_personality_v0 {
entry:
  %temp = alloca %"class.grpc_core::promise_filter_detail::BaseCallData::CapturedBatch", align 8
  call void @_ZN9grpc_core21promise_filter_detail12BaseCallData13CapturedBatchC1ERKS2_(ptr noundef nonnull align 8 dereferenceable(8) %temp, ptr noundef nonnull align 8 dereferenceable(8) %b)
  %0 = load ptr, ptr %this, align 8
  %1 = load ptr, ptr %temp, align 8
  store ptr %1, ptr %this, align 8
  store ptr %0, ptr %temp, align 8
  call void @_ZN9grpc_core21promise_filter_detail12BaseCallData13CapturedBatchD1Ev(ptr noundef nonnull align 8 dereferenceable(8) %temp) #31
  ret ptr %this
}